target datalayout = "e-m:e-p270:32:32-p271:32:32-p272:64:64-i64:64-i128:128-f80:128-n8:16:32:64-S128"
target triple = "x86_64-pc-linux-gnu"

%struct.pinned_list = type { i64, [1 x i64] }

; Function Attrs: nounwind sspstrong uwtable
define internal void @pinned_list_mark(ptr noundef %0) #0 {
  %2 = alloca ptr, align 8
  %3 = alloca i64, align 8
  %4 = alloca ptr, align 8
  store ptr %0, ptr %2, align 8, !tbaa !152
  call void @llvm.lifetime.start.p0(i64 8, ptr %3) #31
  call void @llvm.lifetime.start.p0(i64 8, ptr %4) #31
  %5 = load ptr, ptr %2, align 8, !tbaa !152
  store ptr %5, ptr %4, align 8, !tbaa !1364
  store i64 0, ptr %3, align 8, !tbaa !7
  br label %6

6:                                                ; preds = %26, %1
  %7 = load i64, ptr %3, align 8, !tbaa !7
  %8 = load ptr, ptr %4, align 8, !tbaa !1364
  %9 = getelementptr inbounds nuw %struct.pinned_list, ptr %8, i32 0, i32 0
  %10 = load i64, ptr %9, align 8, !tbaa !1366
  %11 = icmp slt i64 %7, %10
  br i1 %11, label %12, label %29

12:                                               ; preds = %6
  %13 = load ptr, ptr %4, align 8, !tbaa !1364
  %14 = getelementptr inbounds nuw %struct.pinned_list, ptr %13, i32 0, i32 1
  %15 = load i64, ptr %3, align 8, !tbaa !7
  %16 = getelementptr [1 x i64], ptr %14, i64 0, i64 %15
  %17 = load i64, ptr %16, align 8, !tbaa !7
  %18 = icmp ne i64 %17, 0
  br i1 %18, label %19, label %25

19:                                               ; preds = %12
  %20 = load ptr, ptr %4, align 8, !tbaa !1364
  %21 = getelementptr inbounds nuw %struct.pinned_list, ptr %20, i32 0, i32 1
  %22 = load i64, ptr %3, align 8, !tbaa !7
  %23 = getelementptr [1 x i64], ptr %21, i64 0, i64 %22
  %24 = load i64, ptr %23, align 8, !tbaa !7
  call void @rb_gc_mark(i64 noundef %24)
  br label %25

25:                                               ; preds = %19, %12
  br label %26

26:                                               ; preds = %25
  %27 = load i64, ptr %3, align 8, !tbaa !7
  %28 = add i64 %27, 1
  store i64 %28, ptr %3, align 8, !tbaa !7
  br label %6, !llvm.loop !1368

29:                                               ; preds = %6
  call void @llvm.lifetime.end.p0(i64 8, ptr %4) #31
  call void @llvm.lifetime.end.p0(i64 8, ptr %3) #31
  ret void
}