; Function Attrs: nounwind sspstrong uwtable
define internal void @pinned_list_mark(ptr noundef readonly captures(none) %0) #1 {
  %2 = load i64, ptr %0, align 8, !tbaa !368
  %3 = icmp sgt i64 %2, 0
  br i1 %3, label %.lr.ph, label %._crit_edge

.lr.ph:                                           ; preds = %1
  %4 = getelementptr inbounds nuw i8, ptr %0, i64 8
  br label %5

5:                                                ; preds = %.lr.ph, %10
  %6 = phi i64 [ %2, %.lr.ph ], [ %11, %10 ]
  %.08 = phi i64 [ 0, %.lr.ph ], [ %12, %10 ]
  %7 = getelementptr [1 x i64], ptr %4, i64 0, i64 %.08
  %8 = load i64, ptr %7, align 8, !tbaa !37
  %.not = icmp eq i64 %8, 0
  br i1 %.not, label %10, label %9

9:                                                ; preds = %5
  tail call void @rb_gc_mark(i64 noundef %8) #38
  %.pre = load i64, ptr %0, align 8, !tbaa !368
  br label %10

10:                                               ; preds = %5, %9
  %11 = phi i64 [ %6, %5 ], [ %.pre, %9 ]
  %12 = add nuw nsw i64 %.08, 1
  %13 = icmp slt i64 %12, %11
  br i1 %13, label %5, label %._crit_edge, !llvm.loop !1130

._crit_edge:                                      ; preds = %10, %1
  ret void
}